target datalayout = "e-m:e-p270:32:32-p271:32:32-p272:64:64-i64:64-i128:128-f80:128-n8:16:32:64-S128"
target triple = "x86_64-pc-linux-gnu"

%struct.sigaction = type { %union.anon.1, %struct.__sigset_t, i32, ptr }
%union.anon.1 = type { ptr }
%struct.__sigset_t = type { [16 x i64] }

@rb_eRuntimeError = external global i64, align 8
@.str.12 = private unnamed_addr constant [30 x i8] c"can't get Master/Slave device\00", align 1

; Function Attrs: nounwind sspstrong uwtable
define internal i32 @no_mesg(ptr noundef %0, i32 noundef %1) #0 {
  %3 = alloca i32, align 4
  %4 = alloca ptr, align 8
  %5 = alloca i32, align 4
  store ptr %0, ptr %4, align 8, !tbaa !20
  store i32 %1, ptr %5, align 4, !tbaa !10
  %6 = load i32, ptr %5, align 4, !tbaa !10
  %7 = icmp ne i32 %6, 0
  br i1 %7, label %8, label %11

8:                                                ; preds = %2
  %9 = load ptr, ptr %4, align 8, !tbaa !20
  %10 = call i32 @chmod(ptr noundef %9, i32 noundef 384) #15
  store i32 %10, ptr %3, align 4
  br label %12

11:                                               ; preds = %2
  store i32 0, ptr %3, align 4
  br label %12

12:                                               ; preds = %11, %8
  %13 = load i32, ptr %3, align 4
  ret i32 %13
}

; Function Attrs: nounwind sspstrong uwtable
define internal i32 @get_device_once(ptr noundef %0, ptr noundef %1, ptr noundef %2, i32 noundef %3, i32 noundef %4) #0 {
  %6 = alloca i32, align 4
  %7 = alloca ptr, align 8
  %8 = alloca ptr, align 8
  %9 = alloca ptr, align 8
  %10 = alloca i32, align 4
  %11 = alloca i32, align 4
  %12 = alloca i32, align 4
  %13 = alloca i32, align 4
  %14 = alloca ptr, align 8
  %15 = alloca %struct.sigaction, align 8
  %16 = alloca %struct.sigaction, align 8
  %17 = alloca i32, align 4
  %18 = alloca i32, align 4
  store ptr %0, ptr %7, align 8, !tbaa !35
  store ptr %1, ptr %8, align 8, !tbaa !35
  store ptr %2, ptr %9, align 8, !tbaa !20
  store i32 %3, ptr %10, align 4, !tbaa !10
  store i32 %4, ptr %11, align 4, !tbaa !10
  call void @llvm.lifetime.start.p0(i64 4, ptr %12) #15
  store i32 -1, ptr %12, align 4, !tbaa !10
  call void @llvm.lifetime.start.p0(i64 4, ptr %13) #15
  store i32 -1, ptr %13, align 4, !tbaa !10
  call void @llvm.lifetime.start.p0(i64 8, ptr %14) #15
  call void @llvm.lifetime.start.p0(i64 152, ptr %15) #15
  call void @llvm.lifetime.start.p0(i64 152, ptr %16) #15
  %19 = getelementptr inbounds nuw %struct.sigaction, ptr %15, i32 0, i32 0
  store ptr null, ptr %19, align 8, !tbaa !33
  %20 = getelementptr inbounds nuw %struct.sigaction, ptr %15, i32 0, i32 2
  store i32 0, ptr %20, align 8, !tbaa !40
  %21 = getelementptr inbounds nuw %struct.sigaction, ptr %15, i32 0, i32 1
  %22 = call i32 @sigemptyset(ptr noundef %21) #15
  call void @llvm.lifetime.start.p0(i64 4, ptr %17) #15
  store i32 258, ptr %17, align 4, !tbaa !10
  %23 = load i32, ptr %17, align 4, !tbaa !10
  %24 = or i32 %23, 524288
  store i32 %24, ptr %17, align 4, !tbaa !10
  %25 = load i32, ptr %17, align 4, !tbaa !10
  %26 = call i32 @posix_openpt(i32 noundef %25)
  store i32 %26, ptr %12, align 4, !tbaa !10
  %27 = icmp eq i32 %26, -1
  br i1 %27, label %28, label %29

28:                                               ; preds = %5
  store i32 2, ptr %18, align 4
  br label %30

29:                                               ; preds = %5
  store i32 0, ptr %18, align 4
  br label %30

30:                                               ; preds = %28, %29
  call void @llvm.lifetime.end.p0(i64 4, ptr %17) #15
  %31 = load i32, ptr %18, align 4
  switch i32 %31, label %95 [
    i32 0, label %32
    i32 2, label %77
  ]

32:                                               ; preds = %30
  %33 = load i32, ptr %12, align 4, !tbaa !10
  call void @rb_fd_fix_cloexec(i32 noundef %33)
  %34 = call i32 @sigaction(i32 noundef 17, ptr noundef %15, ptr noundef %16) #15
  %35 = icmp eq i32 %34, -1
  br i1 %35, label %36, label %37

36:                                               ; preds = %32
  br label %77

37:                                               ; preds = %32
  %38 = load i32, ptr %12, align 4, !tbaa !10
  %39 = call i32 @grantpt(i32 noundef %38) #15
  %40 = icmp eq i32 %39, -1
  br i1 %40, label %41, label %42

41:                                               ; preds = %37
  br label %75

42:                                               ; preds = %37
  %43 = call i32 @sigaction(i32 noundef 17, ptr noundef %16, ptr noundef null) #15
  %44 = icmp eq i32 %43, -1
  br i1 %44, label %45, label %46

45:                                               ; preds = %42
  br label %77

46:                                               ; preds = %42
  %47 = load i32, ptr %12, align 4, !tbaa !10
  %48 = call i32 @unlockpt(i32 noundef %47) #15
  %49 = icmp eq i32 %48, -1
  br i1 %49, label %50, label %51

50:                                               ; preds = %46
  br label %77

51:                                               ; preds = %46
  %52 = load i32, ptr %12, align 4, !tbaa !10
  %53 = load ptr, ptr %9, align 8, !tbaa !20
  %54 = call i32 @ptsname_r(i32 noundef %52, ptr noundef %53, i64 noundef 16) #15
  %55 = icmp ne i32 %54, 0
  br i1 %55, label %56, label %57

56:                                               ; preds = %51
  br label %77

57:                                               ; preds = %51
  %58 = load ptr, ptr %9, align 8, !tbaa !20
  store ptr %58, ptr %14, align 8, !tbaa !20
  %59 = load ptr, ptr %14, align 8, !tbaa !20
  %60 = load i32, ptr %10, align 4, !tbaa !10
  %61 = call i32 @no_mesg(ptr noundef %59, i32 noundef %60)
  %62 = icmp eq i32 %61, -1
  br i1 %62, label %63, label %64

63:                                               ; preds = %57
  br label %77

64:                                               ; preds = %57
  %65 = load ptr, ptr %14, align 8, !tbaa !20
  %66 = call i32 @rb_cloexec_open(ptr noundef %65, i32 noundef 258, i32 noundef 0)
  store i32 %66, ptr %13, align 4, !tbaa !10
  %67 = icmp eq i32 %66, -1
  br i1 %67, label %68, label %69

68:                                               ; preds = %64
  br label %77

69:                                               ; preds = %64
  %70 = load i32, ptr %13, align 4, !tbaa !10
  call void @rb_update_max_fd(i32 noundef %70)
  %71 = load i32, ptr %12, align 4, !tbaa !10
  %72 = load ptr, ptr %7, align 8, !tbaa !35
  store i32 %71, ptr %72, align 4, !tbaa !10
  %73 = load i32, ptr %13, align 4, !tbaa !10
  %74 = load ptr, ptr %8, align 8, !tbaa !35
  store i32 %73, ptr %74, align 4, !tbaa !10
  store i32 0, ptr %6, align 4
  store i32 1, ptr %18, align 4
  br label %95

75:                                               ; preds = %41
  %76 = call i32 @sigaction(i32 noundef 17, ptr noundef %16, ptr noundef null) #15
  br label %77

77:                                               ; preds = %75, %30, %68, %63, %56, %50, %45, %36
  %78 = load i32, ptr %13, align 4, !tbaa !10
  %79 = icmp ne i32 %78, -1
  br i1 %79, label %80, label %83

80:                                               ; preds = %77
  %81 = load i32, ptr %13, align 4, !tbaa !10
  %82 = call i32 @close(i32 noundef %81)
  br label %83

83:                                               ; preds = %80, %77
  %84 = load i32, ptr %12, align 4, !tbaa !10
  %85 = icmp ne i32 %84, -1
  br i1 %85, label %86, label %89

86:                                               ; preds = %83
  %87 = load i32, ptr %12, align 4, !tbaa !10
  %88 = call i32 @close(i32 noundef %87)
  br label %89

89:                                               ; preds = %86, %83
  %90 = load i32, ptr %11, align 4, !tbaa !10
  %91 = icmp ne i32 %90, 0
  br i1 %91, label %92, label %94

92:                                               ; preds = %89
  %93 = load i64, ptr @rb_eRuntimeError, align 8, !tbaa !6
  call void (i64, ptr, ...) @rb_raise(i64 noundef %93, ptr noundef @.str.12) #16
  unreachable

94:                                               ; preds = %89
  store i32 -1, ptr %6, align 4
  store i32 1, ptr %18, align 4
  br label %95

95:                                               ; preds = %94, %69, %30
  call void @llvm.lifetime.end.p0(i64 152, ptr %16) #15
  call void @llvm.lifetime.end.p0(i64 152, ptr %15) #15
  call void @llvm.lifetime.end.p0(i64 8, ptr %14) #15
  call void @llvm.lifetime.end.p0(i64 4, ptr %13) #15
  call void @llvm.lifetime.end.p0(i64 4, ptr %12) #15
  %96 = load i32, ptr %6, align 4
  ret i32 %96
}