; Function Attrs: nounwind sspstrong uwtable
define internal fastcc range(i32 -1, 1) i32 @get_device_once(ptr noundef nonnull writeonly captures(none) %0, ptr noundef nonnull writeonly captures(none) %1, ptr noundef nonnull %2, i32 noundef range(i32 0, 2) %3, i32 noundef range(i32 0, 2) %4) unnamed_addr #0 {
  %6 = alloca %struct.sigaction, align 8
  %7 = alloca %struct.sigaction, align 8
  call void @llvm.lifetime.start.p0(i64 152, ptr nonnull %6) #10
  call void @llvm.lifetime.start.p0(i64 152, ptr nonnull %7) #10
  store ptr null, ptr %6, align 8, !tbaa !23
  %8 = getelementptr inbounds nuw i8, ptr %6, i64 136
  store i32 0, ptr %8, align 8, !tbaa !32
  %9 = getelementptr inbounds nuw i8, ptr %6, i64 8
  %10 = call i32 @sigemptyset(ptr noundef nonnull %9) #10
  %11 = call i32 @posix_openpt(i32 noundef 524546) #10
  %cond = icmp eq i32 %11, -1
  br i1 %cond, label %33, label %12

12:                                               ; preds = %5
  call void @rb_fd_fix_cloexec(i32 noundef %11) #10
  %13 = call i32 @sigaction(i32 noundef 17, ptr noundef nonnull %6, ptr noundef nonnull %7) #10
  %14 = icmp eq i32 %13, -1
  br i1 %14, label %31, label %15

15:                                               ; preds = %12
  %16 = call i32 @grantpt(i32 noundef %11) #10
  %17 = icmp eq i32 %16, -1
  %18 = call i32 @sigaction(i32 noundef 17, ptr noundef nonnull %7, ptr noundef null) #10
  %19 = icmp eq i32 %18, -1
  %or.cond = select i1 %17, i1 true, i1 %19
  br i1 %or.cond, label %31, label %20

20:                                               ; preds = %15
  %21 = call i32 @unlockpt(i32 noundef %11) #10
  %22 = icmp eq i32 %21, -1
  br i1 %22, label %31, label %23

23:                                               ; preds = %20
  %24 = call i32 @ptsname_r(i32 noundef %11, ptr noundef nonnull %2, i64 noundef 16) #10
  %.not = icmp eq i32 %24, 0
  br i1 %.not, label %25, label %31

25:                                               ; preds = %23
  %.not.i = icmp eq i32 %3, 0
  br i1 %.not.i, label %no_mesg.exit.thread, label %no_mesg.exit

no_mesg.exit:                                     ; preds = %25
  %26 = call i32 @chmod(ptr noundef nonnull readonly %2, i32 noundef 384) #10
  %27 = icmp eq i32 %26, -1
  br i1 %27, label %31, label %no_mesg.exit.thread

no_mesg.exit.thread:                              ; preds = %25, %no_mesg.exit
  %28 = call i32 @rb_cloexec_open(ptr noundef nonnull %2, i32 noundef 258, i32 noundef 0) #10
  %29 = icmp eq i32 %28, -1
  br i1 %29, label %31, label %30

30:                                               ; preds = %no_mesg.exit.thread
  call void @rb_update_max_fd(i32 noundef %28) #10
  store i32 %11, ptr %0, align 4, !tbaa !10
  store i32 %28, ptr %1, align 4, !tbaa !10
  br label %36

31:                                               ; preds = %15, %no_mesg.exit.thread, %no_mesg.exit, %23, %20, %12
  %32 = call i32 @close(i32 noundef %11) #10
  br label %33

33:                                               ; preds = %5, %31
  %.not27 = icmp eq i32 %4, 0
  br i1 %.not27, label %36, label %34

34:                                               ; preds = %33
  %35 = load i64, ptr @rb_eRuntimeError, align 8, !tbaa !6
  call void (i64, ptr, ...) @rb_raise(i64 noundef %35, ptr noundef nonnull @.str.12) #11
  unreachable

36:                                               ; preds = %33, %30
  %.022 = phi i32 [ 0, %30 ], [ -1, %33 ]
  call void @llvm.lifetime.end.p0(i64 152, ptr nonnull %7) #10
  call void @llvm.lifetime.end.p0(i64 152, ptr nonnull %6) #10
  ret i32 %.022
}